target datalayout = "e-m:e-p270:32:32-p271:32:32-p272:64:64-i64:64-i128:128-f80:128-n8:16:32:64-S128"
target triple = "x86_64-pc-linux-gnu"

%"class.Minisat::lbool" = type { i8 }
%"struct.Minisat::Lit" = type { i32 }
%"struct.Minisat::Solver::WatcherDeleted" = type { ptr }
%"struct.Minisat::Solver::VarOrderLt" = type { ptr }
%"class.Minisat::Solver" = type <{ ptr, %"class.Minisat::vec", %"class.Minisat::LSet", i32, [4 x i8], double, double, double, double, i8, [3 x i8], i32, i32, i8, i8, [2 x i8], double, i32, i32, double, double, double, i32, [4 x i8], double, i64, i64, i64, i64, i64, i64, i64, i64, i64, i64, i64, i64, i64, %"class.Minisat::vec.2", %"class.Minisat::vec.2", %"class.Minisat::vec.1", %"class.Minisat::vec.3", %"class.Minisat::vec.1", %"class.Minisat::VMap", %"class.Minisat::VMap.7", %"class.Minisat::VMap.11", %"class.Minisat::VMap.7", %"class.Minisat::VMap.11", %"class.Minisat::VMap.15", %"class.Minisat::OccLists", %"class.Minisat::Heap", i8, [7 x i8], double, double, i32, i32, i64, double, i8, [3 x i8], i32, %"class.Minisat::ClauseAllocator", %"class.Minisat::vec.3", %"class.Minisat::vec.3", %"class.Minisat::VMap.11", %"class.Minisat::vec.25", %"class.Minisat::vec.1", %"class.Minisat::vec.1", double, double, i32, [4 x i8], i64, i64, i8, [7 x i8] }>
%"class.Minisat::vec" = type { ptr, i32, i32 }
%"class.Minisat::LSet" = type { %"class.Minisat::IntSet" }
%"class.Minisat::IntSet" = type { %"class.Minisat::IntMap", %"class.Minisat::vec.1" }
%"class.Minisat::IntMap" = type <{ %"class.Minisat::vec.0", %"struct.Minisat::MkIndexLit", [7 x i8] }>
%"class.Minisat::vec.0" = type { ptr, i32, i32 }
%"struct.Minisat::MkIndexLit" = type { i8 }
%"class.Minisat::vec.2" = type { ptr, i32, i32 }
%"class.Minisat::VMap" = type { %"class.Minisat::IntMap.base.6", [7 x i8] }
%"class.Minisat::IntMap.base.6" = type <{ %"class.Minisat::vec.5", %"struct.Minisat::MkIndexDefault" }>
%"class.Minisat::vec.5" = type { ptr, i32, i32 }
%"struct.Minisat::MkIndexDefault" = type { i8 }
%"class.Minisat::VMap.7" = type { %"class.Minisat::IntMap.base.9", [7 x i8] }
%"class.Minisat::IntMap.base.9" = type <{ %"class.Minisat::vec", %"struct.Minisat::MkIndexDefault" }>
%"class.Minisat::VMap.15" = type { %"class.Minisat::IntMap.base.18", [7 x i8] }
%"class.Minisat::IntMap.base.18" = type <{ %"class.Minisat::vec.17", %"struct.Minisat::MkIndexDefault" }>
%"class.Minisat::vec.17" = type { ptr, i32, i32 }
%"class.Minisat::OccLists" = type { %"class.Minisat::IntMap.20", %"class.Minisat::IntMap", %"class.Minisat::vec.1", %"struct.Minisat::Solver::WatcherDeleted" }
%"class.Minisat::IntMap.20" = type <{ %"class.Minisat::vec.21", %"struct.Minisat::MkIndexLit", [7 x i8] }>
%"class.Minisat::vec.21" = type { ptr, i32, i32 }
%"class.Minisat::Heap" = type { %"class.Minisat::vec.3", %"class.Minisat::IntMap.23", %"struct.Minisat::Solver::VarOrderLt" }
%"class.Minisat::IntMap.23" = type <{ %"class.Minisat::vec.3", %"struct.Minisat::MkIndexDefault", [7 x i8] }>
%"class.Minisat::ClauseAllocator" = type { %"class.Minisat::RegionAllocator", i8, [7 x i8] }
%"class.Minisat::RegionAllocator" = type <{ ptr, i32, i32, i32, [4 x i8] }>
%"class.Minisat::vec.3" = type { ptr, i32, i32 }
%"class.Minisat::VMap.11" = type { %"class.Minisat::IntMap.base.13", [7 x i8] }
%"class.Minisat::IntMap.base.13" = type <{ %"class.Minisat::vec.0", %"struct.Minisat::MkIndexDefault" }>
%"class.Minisat::vec.25" = type { ptr, i32, i32 }
%"class.Minisat::vec.1" = type { ptr, i32, i32 }
%"class.Minisat::IntMap.8" = type <{ %"class.Minisat::vec", %"struct.Minisat::MkIndexDefault", [7 x i8] }>

@_ZN7MinisatL7l_UndefE = internal global %"class.Minisat::lbool" zeroinitializer, align 1
@_ZTIN7Minisat20OutOfMemoryExceptionE = linkonce_odr constant { ptr, ptr } { ptr getelementptr inbounds (ptr, ptr @_ZTVN10__cxxabiv117__class_type_infoE, i64 2), ptr @_ZTSN7Minisat20OutOfMemoryExceptionE }, comdat, align 8

; Function Attrs: mustprogress nounwind uwtable
define linkonce_odr noundef i32 @_ZN7Minisat3vecIiiE3maxEii(i32 noundef %0, i32 noundef %1) #1 comdat align 2 {
  %3 = alloca i32, align 4
  %4 = alloca i32, align 4
  store i32 %0, ptr %3, align 4
  store i32 %1, ptr %4, align 4
  %5 = load i32, ptr %3, align 4
  %6 = load i32, ptr %4, align 4
  %7 = icmp sgt i32 %5, %6
  br i1 %7, label %8, label %10

8:                                                ; preds = %2
  %9 = load i32, ptr %3, align 4
  br label %12

10:                                               ; preds = %2
  %11 = load i32, ptr %4, align 4
  br label %12

12:                                               ; preds = %10, %8
  %13 = phi i32 [ %9, %8 ], [ %11, %10 ]
  ret i32 %13
}

; Function Attrs: mustprogress nounwind uwtable
define linkonce_odr void @_ZN7Minisat5lboolC2Eh(ptr noundef nonnull align 1 dereferenceable(1) %0, i8 noundef zeroext %1) unnamed_addr #1 comdat align 2 {
  %3 = alloca ptr, align 8
  %4 = alloca i8, align 1
  store ptr %0, ptr %3, align 8
  store i8 %1, ptr %4, align 1
  %5 = load ptr, ptr %3, align 8
  %6 = getelementptr inbounds %"class.Minisat::lbool", ptr %5, i32 0, i32 0
  %7 = load i8, ptr %4, align 1
  store i8 %7, ptr %6, align 1
  ret void
}

; Function Attrs: mustprogress nounwind uwtable
define linkonce_odr noundef nonnull align 1 dereferenceable(1) ptr @_ZNK7Minisat3vecINS_5lboolEiEixEi(ptr noundef nonnull align 8 dereferenceable(16) %0, i32 noundef %1) #1 comdat align 2 {
  %3 = alloca ptr, align 8
  %4 = alloca i32, align 4
  store ptr %0, ptr %3, align 8
  store i32 %1, ptr %4, align 4
  %5 = load ptr, ptr %3, align 8
  %6 = getelementptr inbounds %"class.Minisat::vec", ptr %5, i32 0, i32 0
  %7 = load ptr, ptr %6, align 8
  %8 = load i32, ptr %4, align 4
  %9 = sext i32 %8 to i64
  %10 = getelementptr inbounds %"class.Minisat::lbool", ptr %7, i64 %9
  ret ptr %10
}

; Function Attrs: mustprogress nounwind uwtable
define linkonce_odr noundef i32 @_ZNK7Minisat14MkIndexDefaultIiEclEi(ptr noundef nonnull align 1 dereferenceable(1) %0, i32 noundef %1) #1 comdat align 2 {
  %3 = alloca ptr, align 8
  %4 = alloca i32, align 4
  store ptr %0, ptr %3, align 8
  store i32 %1, ptr %4, align 4
  %5 = load i32, ptr %4, align 4
  ret i32 %5
}

; Function Attrs: mustprogress uwtable
define linkonce_odr void @_ZN7Minisat3vecIiiE8capacityEi(ptr noundef nonnull align 8 dereferenceable(16) %0, i32 noundef %1) #2 comdat align 2 {
  %3 = alloca ptr, align 8
  %4 = alloca i32, align 4
  %5 = alloca i32, align 4
  %6 = alloca i32, align 4
  store ptr %0, ptr %3, align 8
  store i32 %1, ptr %4, align 4
  %7 = load ptr, ptr %3, align 8
  %8 = getelementptr inbounds %"class.Minisat::vec.3", ptr %7, i32 0, i32 2
  %9 = load i32, ptr %8, align 4
  %10 = load i32, ptr %4, align 4
  %11 = icmp sge i32 %9, %10
  br i1 %11, label %12, label %13

12:                                               ; preds = %2
  br label %49

13:                                               ; preds = %2
  %14 = load i32, ptr %4, align 4
  %15 = getelementptr inbounds %"class.Minisat::vec.3", ptr %7, i32 0, i32 2
  %16 = load i32, ptr %15, align 4
  %17 = sub nsw i32 %14, %16
  %18 = add nsw i32 %17, 1
  %19 = and i32 %18, -2
  %20 = getelementptr inbounds %"class.Minisat::vec.3", ptr %7, i32 0, i32 2
  %21 = load i32, ptr %20, align 4
  %22 = ashr i32 %21, 1
  %23 = add nsw i32 %22, 2
  %24 = and i32 %23, -2
  %25 = call noundef i32 @_ZN7Minisat3vecIiiE3maxEii(i32 noundef %19, i32 noundef %24)
  store i32 %25, ptr %5, align 4
  store i32 2147483647, ptr %6, align 4
  %26 = load i32, ptr %5, align 4
  %27 = getelementptr inbounds %"class.Minisat::vec.3", ptr %7, i32 0, i32 2
  %28 = load i32, ptr %27, align 4
  %29 = sub nsw i32 2147483647, %28
  %30 = icmp sgt i32 %26, %29
  br i1 %30, label %47, label %31

31:                                               ; preds = %13
  %32 = getelementptr inbounds %"class.Minisat::vec.3", ptr %7, i32 0, i32 0
  %33 = load ptr, ptr %32, align 8
  %34 = load i32, ptr %5, align 4
  %35 = getelementptr inbounds %"class.Minisat::vec.3", ptr %7, i32 0, i32 2
  %36 = load i32, ptr %35, align 4
  %37 = add nsw i32 %36, %34
  store i32 %37, ptr %35, align 4
  %38 = sext i32 %37 to i64
  %39 = mul i64 %38, 4
  %40 = call ptr @realloc(ptr noundef %33, i64 noundef %39) #18
  %41 = getelementptr inbounds %"class.Minisat::vec.3", ptr %7, i32 0, i32 0
  store ptr %40, ptr %41, align 8
  %42 = icmp eq ptr %40, null
  br i1 %42, label %43, label %49

43:                                               ; preds = %31
  %44 = call ptr @__errno_location() #19
  %45 = load i32, ptr %44, align 4
  %46 = icmp eq i32 %45, 12
  br i1 %46, label %47, label %49

47:                                               ; preds = %43, %13
  %48 = call ptr @__cxa_allocate_exception(i64 1) #3
  call void @__cxa_throw(ptr %48, ptr @_ZTIN7Minisat20OutOfMemoryExceptionE, ptr null) #20
  unreachable

49:                                               ; preds = %43, %31, %12
  ret void
}

; Function Attrs: mustprogress uwtable
define linkonce_odr i8 @_ZNK7Minisat5lbooleoEb(ptr noundef nonnull align 1 dereferenceable(1) %0, i1 noundef zeroext %1) #2 comdat align 2 {
  %3 = alloca %"class.Minisat::lbool", align 1
  %4 = alloca ptr, align 8
  %5 = alloca i8, align 1
  store ptr %0, ptr %4, align 8
  %6 = zext i1 %1 to i8
  store i8 %6, ptr %5, align 1
  %7 = load ptr, ptr %4, align 8
  %8 = getelementptr inbounds %"class.Minisat::lbool", ptr %7, i32 0, i32 0
  %9 = load i8, ptr %8, align 1
  %10 = zext i8 %9 to i32
  %11 = load i8, ptr %5, align 1
  %12 = trunc i8 %11 to i1
  %13 = zext i1 %12 to i8
  %14 = zext i8 %13 to i32
  %15 = xor i32 %10, %14
  %16 = trunc i32 %15 to i8
  call void @_ZN7Minisat5lboolC2Eh(ptr noundef nonnull align 1 dereferenceable(1) %3, i8 noundef zeroext %16)
  %17 = getelementptr inbounds %"class.Minisat::lbool", ptr %3, i32 0, i32 0
  %18 = load i8, ptr %17, align 1
  ret i8 %18
}

; Function Attrs: mustprogress nounwind uwtable
define linkonce_odr noundef zeroext i1 @_ZN7Minisat4signENS_3LitE(i32 %0) #1 comdat {
  %2 = alloca %"struct.Minisat::Lit", align 4
  %3 = getelementptr inbounds %"struct.Minisat::Lit", ptr %2, i32 0, i32 0
  store i32 %0, ptr %3, align 4
  %4 = getelementptr inbounds %"struct.Minisat::Lit", ptr %2, i32 0, i32 0
  %5 = load i32, ptr %4, align 4
  %6 = and i32 %5, 1
  %7 = icmp ne i32 %6, 0
  ret i1 %7
}

; Function Attrs: mustprogress uwtable
define linkonce_odr noundef nonnull align 1 dereferenceable(1) ptr @_ZNK7Minisat6IntMapIiNS_5lboolENS_14MkIndexDefaultIiEEEixEi(ptr noundef nonnull align 8 dereferenceable(17) %0, i32 noundef %1) #2 comdat align 2 {
  %3 = alloca ptr, align 8
  %4 = alloca i32, align 4
  store ptr %0, ptr %3, align 8
  store i32 %1, ptr %4, align 4
  %5 = load ptr, ptr %3, align 8
  %6 = getelementptr inbounds %"class.Minisat::IntMap.8", ptr %5, i32 0, i32 0
  %7 = getelementptr inbounds %"class.Minisat::IntMap.8", ptr %5, i32 0, i32 1
  %8 = load i32, ptr %4, align 4
  %9 = call noundef i32 @_ZNK7Minisat14MkIndexDefaultIiEclEi(ptr noundef nonnull align 1 dereferenceable(1) %7, i32 noundef %8)
  %10 = call noundef nonnull align 1 dereferenceable(1) ptr @_ZNK7Minisat3vecINS_5lboolEiEixEi(ptr noundef nonnull align 8 dereferenceable(16) %6, i32 noundef %9)
  ret ptr %10
}

; Function Attrs: mustprogress uwtable
define linkonce_odr void @_ZN7Minisat3vecIiiE4pushERKi(ptr noundef nonnull align 8 dereferenceable(16) %0, ptr noundef nonnull align 4 dereferenceable(4) %1) #2 comdat align 2 {
  %3 = alloca ptr, align 8
  %4 = alloca ptr, align 8
  store ptr %0, ptr %3, align 8
  store ptr %1, ptr %4, align 8
  %5 = load ptr, ptr %3, align 8
  %6 = getelementptr inbounds %"class.Minisat::vec.3", ptr %5, i32 0, i32 1
  %7 = load i32, ptr %6, align 8
  %8 = getelementptr inbounds %"class.Minisat::vec.3", ptr %5, i32 0, i32 2
  %9 = load i32, ptr %8, align 4
  %10 = icmp eq i32 %7, %9
  br i1 %10, label %11, label %15

11:                                               ; preds = %2
  %12 = getelementptr inbounds %"class.Minisat::vec.3", ptr %5, i32 0, i32 1
  %13 = load i32, ptr %12, align 8
  %14 = add nsw i32 %13, 1
  call void @_ZN7Minisat3vecIiiE8capacityEi(ptr noundef nonnull align 8 dereferenceable(16) %5, i32 noundef %14)
  br label %15

15:                                               ; preds = %11, %2
  %16 = getelementptr inbounds %"class.Minisat::vec.3", ptr %5, i32 0, i32 0
  %17 = load ptr, ptr %16, align 8
  %18 = getelementptr inbounds %"class.Minisat::vec.3", ptr %5, i32 0, i32 1
  %19 = load i32, ptr %18, align 8
  %20 = add nsw i32 %19, 1
  store i32 %20, ptr %18, align 8
  %21 = sext i32 %19 to i64
  %22 = getelementptr inbounds i32, ptr %17, i64 %21
  %23 = load ptr, ptr %4, align 8
  %24 = load i32, ptr %23, align 4
  store i32 %24, ptr %22, align 4
  ret void
}

; Function Attrs: mustprogress nounwind uwtable
define linkonce_odr noundef i32 @_ZN7Minisat3varENS_3LitE(i32 %0) #1 comdat {
  %2 = alloca %"struct.Minisat::Lit", align 4
  %3 = getelementptr inbounds %"struct.Minisat::Lit", ptr %2, i32 0, i32 0
  store i32 %0, ptr %3, align 4
  %4 = getelementptr inbounds %"struct.Minisat::Lit", ptr %2, i32 0, i32 0
  %5 = load i32, ptr %4, align 4
  %6 = ashr i32 %5, 1
  ret i32 %6
}

; Function Attrs: mustprogress nounwind uwtable
define linkonce_odr noundef zeroext i1 @_ZNK7Minisat5lbooleqES0_(ptr noundef nonnull align 1 dereferenceable(1) %0, i8 %1) #1 comdat align 2 {
  %3 = alloca %"class.Minisat::lbool", align 1
  %4 = alloca ptr, align 8
  %5 = getelementptr inbounds %"class.Minisat::lbool", ptr %3, i32 0, i32 0
  store i8 %1, ptr %5, align 1
  store ptr %0, ptr %4, align 8
  %6 = load ptr, ptr %4, align 8
  %7 = getelementptr inbounds %"class.Minisat::lbool", ptr %3, i32 0, i32 0
  %8 = load i8, ptr %7, align 1
  %9 = zext i8 %8 to i32
  %10 = and i32 %9, 2
  %11 = getelementptr inbounds %"class.Minisat::lbool", ptr %6, i32 0, i32 0
  %12 = load i8, ptr %11, align 1
  %13 = zext i8 %12 to i32
  %14 = and i32 %13, 2
  %15 = and i32 %10, %14
  %16 = getelementptr inbounds %"class.Minisat::lbool", ptr %3, i32 0, i32 0
  %17 = load i8, ptr %16, align 1
  %18 = zext i8 %17 to i32
  %19 = and i32 %18, 2
  %20 = icmp ne i32 %19, 0
  %21 = xor i1 %20, true
  %22 = zext i1 %21 to i32
  %23 = getelementptr inbounds %"class.Minisat::lbool", ptr %6, i32 0, i32 0
  %24 = load i8, ptr %23, align 1
  %25 = zext i8 %24 to i32
  %26 = getelementptr inbounds %"class.Minisat::lbool", ptr %3, i32 0, i32 0
  %27 = load i8, ptr %26, align 1
  %28 = zext i8 %27 to i32
  %29 = icmp eq i32 %25, %28
  %30 = zext i1 %29 to i32
  %31 = and i32 %22, %30
  %32 = or i32 %15, %31
  %33 = icmp ne i32 %32, 0
  ret i1 %33
}

; Function Attrs: mustprogress uwtable
define linkonce_odr i8 @_ZNK7Minisat6Solver5valueENS_3LitE(ptr noundef nonnull align 8 dereferenceable(857) %0, i32 %1) #2 comdat align 2 {
  %3 = alloca %"class.Minisat::lbool", align 1
  %4 = alloca %"struct.Minisat::Lit", align 4
  %5 = alloca ptr, align 8
  %6 = alloca %"struct.Minisat::Lit", align 4
  %7 = alloca %"struct.Minisat::Lit", align 4
  %8 = getelementptr inbounds %"struct.Minisat::Lit", ptr %4, i32 0, i32 0
  store i32 %1, ptr %8, align 4
  store ptr %0, ptr %5, align 8
  %9 = load ptr, ptr %5, align 8
  %10 = getelementptr inbounds %"class.Minisat::Solver", ptr %9, i32 0, i32 44
  call void @llvm.memcpy.p0.p0.i64(ptr align 4 %6, ptr align 4 %4, i64 4, i1 false)
  %11 = getelementptr inbounds %"struct.Minisat::Lit", ptr %6, i32 0, i32 0
  %12 = load i32, ptr %11, align 4
  %13 = call noundef i32 @_ZN7Minisat3varENS_3LitE(i32 %12)
  %14 = call noundef nonnull align 1 dereferenceable(1) ptr @_ZNK7Minisat6IntMapIiNS_5lboolENS_14MkIndexDefaultIiEEEixEi(ptr noundef nonnull align 8 dereferenceable(17) %10, i32 noundef %13)
  call void @llvm.memcpy.p0.p0.i64(ptr align 4 %7, ptr align 4 %4, i64 4, i1 false)
  %15 = getelementptr inbounds %"struct.Minisat::Lit", ptr %7, i32 0, i32 0
  %16 = load i32, ptr %15, align 4
  %17 = call noundef zeroext i1 @_ZN7Minisat4signENS_3LitE(i32 %16)
  %18 = call i8 @_ZNK7Minisat5lbooleoEb(ptr noundef nonnull align 1 dereferenceable(1) %14, i1 noundef zeroext %17)
  %19 = getelementptr inbounds %"class.Minisat::lbool", ptr %3, i32 0, i32 0
  store i8 %18, ptr %19, align 1
  %20 = getelementptr inbounds %"class.Minisat::lbool", ptr %3, i32 0, i32 0
  %21 = load i8, ptr %20, align 1
  ret i8 %21
}

; Function Attrs: mustprogress uwtable
define void @_ZN7Minisat6Solver10releaseVarENS_3LitE(ptr noundef nonnull align 8 dereferenceable(857) %0, i32 %1) #2 align 2 {
  %3 = alloca %"struct.Minisat::Lit", align 4
  %4 = alloca ptr, align 8
  %5 = alloca %"class.Minisat::lbool", align 1
  %6 = alloca %"struct.Minisat::Lit", align 4
  %7 = alloca %"class.Minisat::lbool", align 1
  %8 = alloca %"struct.Minisat::Lit", align 4
  %9 = alloca i32, align 4
  %10 = alloca %"struct.Minisat::Lit", align 4
  %11 = getelementptr inbounds %"struct.Minisat::Lit", ptr %3, i32 0, i32 0
  store i32 %1, ptr %11, align 4
  store ptr %0, ptr %4, align 8
  %12 = load ptr, ptr %4, align 8
  call void @llvm.memcpy.p0.p0.i64(ptr align 4 %6, ptr align 4 %3, i64 4, i1 false)
  %13 = getelementptr inbounds %"struct.Minisat::Lit", ptr %6, i32 0, i32 0
  %14 = load i32, ptr %13, align 4
  %15 = call i8 @_ZNK7Minisat6Solver5valueENS_3LitE(ptr noundef nonnull align 8 dereferenceable(857) %12, i32 %14)
  %16 = getelementptr inbounds %"class.Minisat::lbool", ptr %5, i32 0, i32 0
  store i8 %15, ptr %16, align 1
  call void @llvm.memcpy.p0.p0.i64(ptr align 1 %7, ptr align 1 @_ZN7MinisatL7l_UndefE, i64 1, i1 false)
  %17 = getelementptr inbounds %"class.Minisat::lbool", ptr %7, i32 0, i32 0
  %18 = load i8, ptr %17, align 1
  %19 = call noundef zeroext i1 @_ZNK7Minisat5lbooleqES0_(ptr noundef nonnull align 1 dereferenceable(1) %5, i8 %18)
  br i1 %19, label %20, label %28

20:                                               ; preds = %2
  call void @llvm.memcpy.p0.p0.i64(ptr align 4 %8, ptr align 4 %3, i64 4, i1 false)
  %21 = getelementptr inbounds %"struct.Minisat::Lit", ptr %8, i32 0, i32 0
  %22 = load i32, ptr %21, align 4
  %23 = call noundef zeroext i1 @_ZN7Minisat6Solver9addClauseENS_3LitE(ptr noundef nonnull align 8 dereferenceable(857) %12, i32 %22)
  %24 = getelementptr inbounds %"class.Minisat::Solver", ptr %12, i32 0, i32 63
  call void @llvm.memcpy.p0.p0.i64(ptr align 4 %10, ptr align 4 %3, i64 4, i1 false)
  %25 = getelementptr inbounds %"struct.Minisat::Lit", ptr %10, i32 0, i32 0
  %26 = load i32, ptr %25, align 4
  %27 = call noundef i32 @_ZN7Minisat3varENS_3LitE(i32 %26)
  store i32 %27, ptr %9, align 4
  call void @_ZN7Minisat3vecIiiE4pushERKi(ptr noundef nonnull align 8 dereferenceable(16) %24, ptr noundef nonnull align 4 dereferenceable(4) %9)
  br label %28

28:                                               ; preds = %20, %2
  ret void
}