; Function Attrs: mustprogress uwtable
define void @_ZN7Minisat6Solver10releaseVarENS_3LitE(ptr noundef nonnull align 8 dereferenceable(857) %0, i32 %1) local_unnamed_addr #2 align 2 {
  %3 = getelementptr inbounds i8, ptr %0, i64 384
  %4 = ashr i32 %1, 1
  %5 = load ptr, ptr %3, align 8
  %6 = sext i32 %4 to i64
  %7 = getelementptr inbounds %"class.Minisat::lbool", ptr %5, i64 %6
  %8 = load i8, ptr %7, align 1
  %9 = trunc i32 %1 to i8
  %10 = and i8 %9, 1
  %11 = xor i8 %8, %10
  %.sroa.02.0.copyload = load i8, ptr @_ZN7MinisatL7l_UndefE, align 1
  %12 = and i8 %8, 2
  %13 = and i8 %12, %.sroa.02.0.copyload
  %14 = lshr i8 %.sroa.02.0.copyload, 1
  %15 = icmp eq i8 %11, %.sroa.02.0.copyload
  %16 = and i8 %14, 1
  %17 = xor i8 %16, 1
  %18 = select i1 %15, i8 %17, i8 0
  %19 = or disjoint i8 %18, %13
  %.not = icmp eq i8 %19, 0
  br i1 %.not, label %53, label %20

20:                                               ; preds = %2
  %21 = tail call noundef zeroext i1 @_ZN7Minisat6Solver9addClauseENS_3LitE(ptr noundef nonnull align 8 dereferenceable(857) %0, i32 %1)
  %22 = getelementptr inbounds i8, ptr %0, i64 712
  %23 = getelementptr inbounds i8, ptr %0, i64 720
  %24 = load i32, ptr %23, align 8
  %25 = getelementptr inbounds i8, ptr %0, i64 724
  %26 = load i32, ptr %25, align 4
  %27 = icmp eq i32 %24, %26
  br i1 %27, label %28, label %._ZN7Minisat3vecIiiE8capacityEi.exit_crit_edge.i

._ZN7Minisat3vecIiiE8capacityEi.exit_crit_edge.i: ; preds = %20
  %.pre.i = load ptr, ptr %22, align 8
  br label %_ZN7Minisat3vecIiiE4pushERKi.exit

28:                                               ; preds = %20
  %29 = ashr i32 %24, 1
  %30 = and i32 %29, -2
  %31 = tail call i32 @llvm.smax.i32(i32 %30, i32 0)
  %32 = add nuw nsw i32 %31, 2
  %33 = sub nsw i32 2147483647, %24
  %34 = icmp ugt i32 %32, %33
  br i1 %34, label %46, label %35

35:                                               ; preds = %28
  %36 = load ptr, ptr %22, align 8
  %37 = add nsw i32 %32, %24
  store i32 %37, ptr %25, align 4
  %38 = sext i32 %37 to i64
  %39 = shl nsw i64 %38, 2
  %40 = tail call ptr @realloc(ptr noundef %36, i64 noundef %39) #27
  store ptr %40, ptr %22, align 8
  %41 = icmp eq ptr %40, null
  br i1 %41, label %42, label %._ZN7Minisat3vecIiiE4pushERKi.exit_crit_edge

._ZN7Minisat3vecIiiE4pushERKi.exit_crit_edge:     ; preds = %35
  %.pre = load i32, ptr %23, align 8
  br label %_ZN7Minisat3vecIiiE4pushERKi.exit

42:                                               ; preds = %35
  %43 = tail call ptr @__errno_location() #28
  %44 = load i32, ptr %43, align 4
  %45 = icmp eq i32 %44, 12
  tail call void @llvm.assume(i1 %45)
  br label %46

46:                                               ; preds = %42, %28
  %47 = tail call ptr @__cxa_allocate_exception(i64 1) #25
  tail call void @__cxa_throw(ptr %47, ptr nonnull @_ZTIN7Minisat20OutOfMemoryExceptionE, ptr null) #29
  unreachable

_ZN7Minisat3vecIiiE4pushERKi.exit:                ; preds = %._ZN7Minisat3vecIiiE4pushERKi.exit_crit_edge, %._ZN7Minisat3vecIiiE8capacityEi.exit_crit_edge.i
  %48 = phi i32 [ %24, %._ZN7Minisat3vecIiiE8capacityEi.exit_crit_edge.i ], [ %.pre, %._ZN7Minisat3vecIiiE4pushERKi.exit_crit_edge ]
  %49 = phi ptr [ %.pre.i, %._ZN7Minisat3vecIiiE8capacityEi.exit_crit_edge.i ], [ %40, %._ZN7Minisat3vecIiiE4pushERKi.exit_crit_edge ]
  %50 = add nsw i32 %48, 1
  store i32 %50, ptr %23, align 8
  %51 = sext i32 %48 to i64
  %52 = getelementptr inbounds i32, ptr %49, i64 %51
  store i32 %4, ptr %52, align 4
  br label %53

53:                                               ; preds = %_ZN7Minisat3vecIiiE4pushERKi.exit, %2
  ret void
}